target datalayout = "e-m:e-p270:32:32-p271:32:32-p272:64:64-i64:64-i128:128-f80:128-n8:16:32:64-S128"
target triple = "x86_64-pc-linux-gnu"

%struct.WOLFSSL = type <{ ptr, ptr, ptr, ptr, [48 x i8], [48 x i8], ptr, ptr, ptr, ptr, ptr, ptr, ptr, ptr, ptr, ptr, ptr, ptr, ptr, i32, [4 x i8], %struct.WOLFSSL_CIPHER, ptr, %struct.Ciphers, %struct.Ciphers, [8 x i8], %struct.Buffers, ptr, ptr, %struct.WOLFSSL_ALERT_HISTORY, %struct.WOLFSSL_ALERT, i32, i32, i32, i32, i32, i32, i32, i16, [2 x i8], i32, i8, %struct.RecordLayerHeader, %struct.MsgsReceived, %struct.ProtocolVersion, %struct.ProtocolVersion, %struct.CipherSpecs, [2 x i8], %struct.Keys, %struct.Options, ptr, i8, i8, i16, [10 x i16], i8, i8, i16, i16, [38 x i8], i32, i32, [4 x i8], ptr, i8, i8, [6 x i8], ptr, ptr, i16, i8, i8, i32, i8, [3 x i8], i32, %struct.OneTimeAuth, ptr }>
%struct.WOLFSSL_CIPHER = type { i8, i8, ptr }
%struct.Ciphers = type { ptr, ptr, ptr, ptr, i8, i8 }
%struct.Buffers = type { %struct.bufferStatic, %struct.bufferStatic, %struct.WOLFSSL_BUFFER_INFO, %struct.WOLFSSL_BUFFER_INFO, %struct.WOLFSSL_BUFFER_INFO, %struct.WOLFSSL_BUFFER_INFO, i32, i32, i8, i8, i8, i8, %struct.WOLFSSL_BUFFER_INFO, %struct.WOLFSSL_BUFFER_INFO, %struct.WOLFSSL_BUFFER_INFO, %struct.WOLFSSL_BUFFER_INFO, ptr, ptr, ptr, i8, i8, i32, i32, ptr, i32, [1 x ptr] }
%struct.bufferStatic = type { [5 x i8], ptr, i32, i32, i32, i8, i8 }
%struct.WOLFSSL_BUFFER_INFO = type { ptr, i32 }
%struct.WOLFSSL_ALERT_HISTORY = type { %struct.WOLFSSL_ALERT, %struct.WOLFSSL_ALERT }
%struct.WOLFSSL_ALERT = type { i32, i32 }
%struct.RecordLayerHeader = type { i8, i8, i8, [2 x i8] }
%struct.MsgsReceived = type { i32 }
%struct.ProtocolVersion = type { i8, i8 }
%struct.CipherSpecs = type { i16, i16, i16, i16, i8, i8, i8, i8, i8, i8, i8, i8 }
%struct.Keys = type { [64 x i8], [64 x i8], [32 x i8], [32 x i8], [16 x i8], [16 x i8], [8 x i8], [12 x i8], [12 x i8], i32, i32, i32, i32, i32, i32, i8, i8, i8, i8 }
%struct.Options = type { i64, i64, i8, i8, i8, i8, i8, i8, i8, i8, i8, i8, i8, i8, i8, i8, i8, i8, i8, i8, i8, i8, i8, i16, i16, i16, i16, i16, i8 }
%struct.OneTimeAuth = type { ptr, i8 }
%struct.WOLFSSL_CTX = type <{ ptr, %struct.wolfSSL_RefWithMutex, i32, [4 x i8], %struct.WOLFSSL_BUFFER_INFO, %struct.WOLFSSL_BUFFER_INFO, ptr, ptr, i32, [4 x i8], ptr, i8, i8, [2 x i8], i32, i32, [4 x i8], ptr, ptr, ptr, i8, i16, i8, i8, i8, i16, i16, i16, i16, [2 x i8], i64, ptr, ptr, ptr, ptr, i32, i32, i16, [2 x i8], i32, [10 x i16], i8, [3 x i8], ptr, ptr, i32, [4 x i8], ptr, i8, [7 x i8] }>
%struct.wolfSSL_RefWithMutex = type { %union.pthread_mutex_t, i32 }
%union.pthread_mutex_t = type { %struct.__pthread_mutex_s }
%struct.__pthread_mutex_s = type { i32, i32, i32, i32, i32, i16, i16, %struct.__pthread_internal_list }
%struct.__pthread_internal_list = type { ptr, ptr }
%struct.Suites = type { i16, i16, [300 x i8], [38 x i8], i8 }

; Function Attrs: nounwind uwtable
define i32 @FindSuiteSSL(ptr noundef %0, ptr noundef %1) #0 {
  %3 = alloca i32, align 4
  %4 = alloca ptr, align 8
  %5 = alloca ptr, align 8
  %6 = alloca i16, align 2
  %7 = alloca ptr, align 8
  %8 = alloca i32, align 4
  store ptr %0, ptr %4, align 8, !tbaa !3
  store ptr %1, ptr %5, align 8, !tbaa !8
  call void @llvm.lifetime.start.p0(i64 2, ptr %6) #8
  call void @llvm.lifetime.start.p0(i64 8, ptr %7) #8
  %9 = load ptr, ptr %4, align 8, !tbaa !3
  %10 = getelementptr inbounds nuw %struct.WOLFSSL, ptr %9, i32 0, i32 1
  %11 = load ptr, ptr %10, align 8, !tbaa !92
  %12 = icmp ne ptr %11, null
  br i1 %12, label %13, label %17

13:                                               ; preds = %2
  %14 = load ptr, ptr %4, align 8, !tbaa !3
  %15 = getelementptr inbounds nuw %struct.WOLFSSL, ptr %14, i32 0, i32 1
  %16 = load ptr, ptr %15, align 8, !tbaa !92
  br label %23

17:                                               ; preds = %2
  %18 = load ptr, ptr %4, align 8, !tbaa !3
  %19 = getelementptr inbounds nuw %struct.WOLFSSL, ptr %18, i32 0, i32 0
  %20 = load ptr, ptr %19, align 16, !tbaa !93
  %21 = getelementptr inbounds nuw %struct.WOLFSSL_CTX, ptr %20, i32 0, i32 18
  %22 = load ptr, ptr %21, align 8, !tbaa !94
  br label %23

23:                                               ; preds = %17, %13
  %24 = phi ptr [ %16, %13 ], [ %22, %17 ]
  store ptr %24, ptr %7, align 8, !tbaa !99
  store i16 0, ptr %6, align 2, !tbaa !66
  br label %25

25:                                               ; preds = %65, %23
  %26 = load i16, ptr %6, align 2, !tbaa !66
  %27 = zext i16 %26 to i32
  %28 = load ptr, ptr %7, align 8, !tbaa !99
  %29 = getelementptr inbounds nuw %struct.Suites, ptr %28, i32 0, i32 0
  %30 = load i16, ptr %29, align 2, !tbaa !100
  %31 = zext i16 %30 to i32
  %32 = icmp slt i32 %27, %31
  br i1 %32, label %33, label %70

33:                                               ; preds = %25
  %34 = load ptr, ptr %7, align 8, !tbaa !99
  %35 = getelementptr inbounds nuw %struct.Suites, ptr %34, i32 0, i32 2
  %36 = load i16, ptr %6, align 2, !tbaa !66
  %37 = zext i16 %36 to i32
  %38 = add nsw i32 %37, 0
  %39 = sext i32 %38 to i64
  %40 = getelementptr inbounds [300 x i8], ptr %35, i64 0, i64 %39
  %41 = load i8, ptr %40, align 1, !tbaa !58
  %42 = zext i8 %41 to i32
  %43 = load ptr, ptr %5, align 8, !tbaa !8
  %44 = getelementptr inbounds i8, ptr %43, i64 0
  %45 = load i8, ptr %44, align 1, !tbaa !58
  %46 = zext i8 %45 to i32
  %47 = icmp eq i32 %42, %46
  br i1 %47, label %48, label %64

48:                                               ; preds = %33
  %49 = load ptr, ptr %7, align 8, !tbaa !99
  %50 = getelementptr inbounds nuw %struct.Suites, ptr %49, i32 0, i32 2
  %51 = load i16, ptr %6, align 2, !tbaa !66
  %52 = zext i16 %51 to i32
  %53 = add nsw i32 %52, 1
  %54 = sext i32 %53 to i64
  %55 = getelementptr inbounds [300 x i8], ptr %50, i64 0, i64 %54
  %56 = load i8, ptr %55, align 1, !tbaa !58
  %57 = zext i8 %56 to i32
  %58 = load ptr, ptr %5, align 8, !tbaa !8
  %59 = getelementptr inbounds i8, ptr %58, i64 1
  %60 = load i8, ptr %59, align 1, !tbaa !58
  %61 = zext i8 %60 to i32
  %62 = icmp eq i32 %57, %61
  br i1 %62, label %63, label %64

63:                                               ; preds = %48
  store i32 1, ptr %3, align 4
  store i32 1, ptr %8, align 4
  br label %71

64:                                               ; preds = %48, %33
  br label %65

65:                                               ; preds = %64
  %66 = load i16, ptr %6, align 2, !tbaa !66
  %67 = zext i16 %66 to i32
  %68 = add nsw i32 %67, 2
  %69 = trunc i32 %68 to i16
  store i16 %69, ptr %6, align 2, !tbaa !66
  br label %25, !llvm.loop !102

70:                                               ; preds = %25
  store i32 0, ptr %3, align 4
  store i32 1, ptr %8, align 4
  br label %71

71:                                               ; preds = %70, %63
  call void @llvm.lifetime.end.p0(i64 8, ptr %7) #8
  call void @llvm.lifetime.end.p0(i64 2, ptr %6) #8
  %72 = load i32, ptr %3, align 4
  ret i32 %72
}