; Function Attrs: nofree norecurse nosync nounwind memory(read, inaccessiblemem: none) uwtable
define range(i32 0, 2) i32 @FindSuiteSSL(ptr noundef readonly captures(none) %0, ptr noundef readonly captures(none) %1) local_unnamed_addr #6 {
  %3 = getelementptr inbounds nuw i8, ptr %0, i64 8
  %4 = load ptr, ptr %3, align 8, !tbaa !83
  %.not = icmp eq ptr %4, null
  br i1 %.not, label %5, label %9

5:                                                ; preds = %2
  %6 = load ptr, ptr %0, align 16, !tbaa !84
  %7 = getelementptr inbounds nuw i8, ptr %6, i64 152
  %8 = load ptr, ptr %7, align 8, !tbaa !85
  br label %9

9:                                                ; preds = %2, %5
  %10 = phi ptr [ %8, %5 ], [ %4, %2 ]
  %11 = load i16, ptr %10, align 2, !tbaa !90
  %12 = zext i16 %11 to i32
  %.not17 = icmp eq i16 %11, 0
  br i1 %.not17, label %._crit_edge, label %.lr.ph

.lr.ph:                                           ; preds = %9
  %13 = getelementptr inbounds nuw i8, ptr %10, i64 4
  %14 = load i8, ptr %1, align 1, !tbaa !57
  %15 = getelementptr inbounds nuw i8, ptr %1, i64 1
  br label %16

16:                                               ; preds = %.lr.ph, %29
  %17 = phi i32 [ 0, %.lr.ph ], [ %31, %29 ]
  %18 = zext nneg i32 %17 to i64
  %19 = getelementptr inbounds nuw [300 x i8], ptr %13, i64 0, i64 %18
  %20 = load i8, ptr %19, align 1, !tbaa !57
  %21 = icmp eq i8 %20, %14
  br i1 %21, label %22, label %29

22:                                               ; preds = %16
  %23 = add nuw nsw i32 %17, 1
  %24 = zext nneg i32 %23 to i64
  %25 = getelementptr inbounds nuw [300 x i8], ptr %13, i64 0, i64 %24
  %26 = load i8, ptr %25, align 1, !tbaa !57
  %27 = load i8, ptr %15, align 1, !tbaa !57
  %28 = icmp eq i8 %26, %27
  br i1 %28, label %._crit_edge, label %29

29:                                               ; preds = %16, %22
  %30 = add nuw nsw i32 %17, 2
  %31 = and i32 %30, 65535
  %32 = icmp samesign ult i32 %31, %12
  br i1 %32, label %16, label %._crit_edge, !llvm.loop !92

._crit_edge:                                      ; preds = %22, %29, %9
  %.0 = phi i32 [ 0, %9 ], [ 0, %29 ], [ 1, %22 ]
  ret i32 %.0
}